; Function Attrs: mustprogress nounwind willreturn uwtable
define internal noundef i32 @archive_compressor_compress_free(ptr noundef readonly captures(none) %0) #5 {
  %2 = getelementptr inbounds nuw i8, ptr %0, i64 72
  %3 = load ptr, ptr %2, align 8, !tbaa !36
  %4 = getelementptr inbounds nuw i8, ptr %3, i64 414072
  %5 = load ptr, ptr %4, align 8, !tbaa !24
  tail call void @free(ptr noundef %5) #7
  tail call void @free(ptr noundef %3) #7
  ret i32 0
}